target datalayout = "e-m:e-p270:32:32-p271:32:32-p272:64:64-i64:64-i128:128-f80:128-n8:16:32:64-S128"
target triple = "x86_64-pc-linux-gnu"

%"class.llvm::LocationSize" = type { i64 }
%"class.llvm::TypeSize" = type { %"class.llvm::details::FixedOrScalableQuantity.base", [7 x i8] }
%"class.llvm::details::FixedOrScalableQuantity.base" = type <{ i64, i8 }>
%"class.llvm::MemoryLocation" = type { ptr, %"class.llvm::LocationSize", %"struct.llvm::AAMDNodes" }
%"struct.llvm::AAMDNodes" = type { ptr, ptr, ptr, ptr }
%"class.llvm::Value" = type { i8, i8, i16, i32, ptr, ptr }
%"class.llvm::details::FixedOrScalableQuantity" = type <{ i64, i8, [7 x i8] }>
%"class.llvm::Use" = type { ptr, ptr, ptr, ptr }

; Function Attrs: mustprogress nounwind uwtable
define linkonce_odr hidden noundef ptr @_ZN4llvm16cast_convert_valINS_5ValueEPS1_S2_E4doitEPKS1_(ptr noundef %0) #0 comdat align 2 {
  %2 = alloca ptr, align 8
  store ptr %0, ptr %2, align 8
  %3 = load ptr, ptr %2, align 8
  ret ptr %3
}

; Function Attrs: mustprogress nounwind uwtable
define linkonce_odr hidden noundef ptr @_ZN4llvm8CastInfoINS_5ValueEPS1_vE6doCastERKS2_(ptr noundef nonnull align 8 dereferenceable(8) %0) #0 comdat align 2 {
  %2 = alloca ptr, align 8
  store ptr %0, ptr %2, align 8
  %3 = load ptr, ptr %2, align 8
  %4 = load ptr, ptr %3, align 8
  %5 = call noundef ptr @_ZN4llvm16cast_convert_valINS_5ValueEPS1_S2_E4doitEPKS1_(ptr noundef %4)
  ret ptr %5
}

; Function Attrs: mustprogress nounwind uwtable
define linkonce_odr hidden noundef nonnull align 8 dereferenceable(8) ptr @_ZN4llvm14ValueIsPresentIPNS_5ValueEvE11unwrapValueERS2_(ptr noundef nonnull align 8 dereferenceable(8) %0) #0 comdat align 2 {
  %2 = alloca ptr, align 8
  store ptr %0, ptr %2, align 8
  %3 = load ptr, ptr %2, align 8
  ret ptr %3
}

; Function Attrs: mustprogress nounwind uwtable
define linkonce_odr hidden noundef zeroext i1 @_ZN4llvm14ValueIsPresentIPNS_5ValueEvE9isPresentERKS2_(ptr noundef nonnull align 8 dereferenceable(8) %0) #0 comdat align 2 {
  %2 = alloca ptr, align 8
  store ptr %0, ptr %2, align 8
  %3 = load ptr, ptr %2, align 8
  %4 = load ptr, ptr %3, align 8
  %5 = icmp ne ptr %4, null
  ret i1 %5
}

; Function Attrs: mustprogress nounwind uwtable
define linkonce_odr hidden noundef nonnull align 8 dereferenceable(8) ptr @_ZN4llvm13simplify_typeIPNS_5ValueEE18getSimplifiedValueERS2_(ptr noundef nonnull align 8 dereferenceable(8) %0) #0 comdat align 2 {
  %2 = alloca ptr, align 8
  store ptr %0, ptr %2, align 8
  %3 = load ptr, ptr %2, align 8
  ret ptr %3
}

; Function Attrs: mustprogress nounwind uwtable
define linkonce_odr hidden noundef ptr @_ZN4llvm4castINS_5ValueES1_EEDcPT0_(ptr noundef %0) #0 comdat {
  %2 = alloca ptr, align 8
  store ptr %0, ptr %2, align 8
  %3 = call noundef ptr @_ZN4llvm8CastInfoINS_5ValueEPS1_vE6doCastERKS2_(ptr noundef nonnull align 8 dereferenceable(8) %2)
  ret ptr %3
}

; Function Attrs: mustprogress nounwind uwtable
define linkonce_odr hidden noundef nonnull align 8 dereferenceable(8) ptr @_ZN4llvm6detail11unwrapValueIPNS_5ValueEEEDcRT_(ptr noundef nonnull align 8 dereferenceable(8) %0) #0 comdat {
  %2 = alloca ptr, align 8
  store ptr %0, ptr %2, align 8
  %3 = load ptr, ptr %2, align 8
  %4 = call noundef nonnull align 8 dereferenceable(8) ptr @_ZN4llvm14ValueIsPresentIPNS_5ValueEvE11unwrapValueERS2_(ptr noundef nonnull align 8 dereferenceable(8) %3)
  ret ptr %4
}

; Function Attrs: mustprogress nounwind uwtable
define linkonce_odr hidden noundef ptr @_ZN4llvm8CastInfoINS_5ValueEPS1_vE10castFailedEv() #0 comdat align 2 {
  ret ptr null
}

; Function Attrs: mustprogress nounwind uwtable
define linkonce_odr hidden noundef zeroext i1 @_ZN4llvm6detail9isPresentIPNS_5ValueEEEbRKT_(ptr noundef nonnull align 8 dereferenceable(8) %0) #0 comdat {
  %2 = alloca ptr, align 8
  store ptr %0, ptr %2, align 8
  %3 = load ptr, ptr %2, align 8
  %4 = call noundef nonnull align 8 dereferenceable(8) ptr @_ZN4llvm13simplify_typeIPNS_5ValueEE18getSimplifiedValueERS2_(ptr noundef nonnull align 8 dereferenceable(8) %3)
  %5 = call noundef zeroext i1 @_ZN4llvm14ValueIsPresentIPNS_5ValueEvE9isPresentERKS2_(ptr noundef nonnull align 8 dereferenceable(8) %4)
  ret i1 %5
}

; Function Attrs: mustprogress nounwind uwtable
define linkonce_odr hidden noundef ptr @_ZN4llvm15cast_if_presentINS_5ValueES1_EEDaPT0_(ptr noundef %0) #0 comdat {
  %2 = alloca ptr, align 8
  %3 = alloca ptr, align 8
  store ptr %0, ptr %3, align 8
  %4 = call noundef zeroext i1 @_ZN4llvm6detail9isPresentIPNS_5ValueEEEbRKT_(ptr noundef nonnull align 8 dereferenceable(8) %3)
  br i1 %4, label %7, label %5

5:                                                ; preds = %1
  %6 = call noundef ptr @_ZN4llvm8CastInfoINS_5ValueEPS1_vE10castFailedEv()
  store ptr %6, ptr %2, align 8
  br label %11

7:                                                ; preds = %1
  %8 = call noundef nonnull align 8 dereferenceable(8) ptr @_ZN4llvm6detail11unwrapValueIPNS_5ValueEEEDcRT_(ptr noundef nonnull align 8 dereferenceable(8) %3)
  %9 = load ptr, ptr %8, align 8
  %10 = call noundef ptr @_ZN4llvm4castINS_5ValueES1_EEDcPT0_(ptr noundef %9)
  store ptr %10, ptr %2, align 8
  br label %11

11:                                               ; preds = %7, %5
  %12 = load ptr, ptr %2, align 8
  ret ptr %12
}

; Function Attrs: mustprogress nounwind uwtable
define linkonce_odr hidden void @_ZN4llvm7details23FixedOrScalableQuantityINS_8TypeSizeEmEC2Emb(ptr noundef nonnull align 8 dereferenceable(9) %0, i64 noundef %1, i1 noundef zeroext %2) unnamed_addr #0 comdat align 2 {
  %4 = alloca ptr, align 8
  %5 = alloca i64, align 8
  %6 = alloca i8, align 1
  store ptr %0, ptr %4, align 8
  store i64 %1, ptr %5, align 8
  %7 = zext i1 %2 to i8
  store i8 %7, ptr %6, align 1
  %8 = load ptr, ptr %4, align 8
  %9 = getelementptr inbounds nuw %"class.llvm::details::FixedOrScalableQuantity", ptr %8, i32 0, i32 0
  %10 = load i64, ptr %5, align 8
  store i64 %10, ptr %9, align 8
  %11 = getelementptr inbounds nuw %"class.llvm::details::FixedOrScalableQuantity", ptr %8, i32 0, i32 1
  %12 = load i8, ptr %6, align 1
  %13 = trunc i8 %12 to i1
  %14 = zext i1 %13 to i8
  store i8 %14, ptr %11, align 8
  ret void
}

; Function Attrs: mustprogress nounwind uwtable
define linkonce_odr hidden noundef i64 @_ZN4llvm15alignToPowerOf2ImimEET1_T_T0_(i64 noundef %0, i32 noundef %1) #0 comdat {
  %3 = alloca i64, align 8
  %4 = alloca i32, align 4
  %5 = alloca i64, align 8
  store i64 %0, ptr %3, align 8
  store i32 %1, ptr %4, align 4
  %6 = load i32, ptr %4, align 4
  %7 = sext i32 %6 to i64
  %8 = sub i64 0, %7
  store i64 %8, ptr %5, align 8
  %9 = load i64, ptr %3, align 8
  %10 = load i32, ptr %4, align 4
  %11 = sub nsw i32 %10, 1
  %12 = sext i32 %11 to i64
  %13 = add i64 %9, %12
  %14 = load i64, ptr %5, align 8
  %15 = and i64 %13, %14
  ret i64 %15
}

; Function Attrs: mustprogress nounwind uwtable
define linkonce_odr noundef ptr @_ZN4llvm12cast_or_nullINS_5ValueES1_EEDaPT0_(ptr noundef %0) #0 comdat {
  %2 = alloca ptr, align 8
  store ptr %0, ptr %2, align 8
  %3 = load ptr, ptr %2, align 8
  %4 = call noundef ptr @_ZN4llvm15cast_if_presentINS_5ValueES1_EEDaPT0_(ptr noundef %3)
  ret ptr %4
}

; Function Attrs: mustprogress nounwind uwtable
define linkonce_odr hidden noundef ptr @_ZNK4llvm3Use3getEv(ptr noundef nonnull align 8 dereferenceable(32) %0) #0 comdat align 2 {
  %2 = alloca ptr, align 8
  store ptr %0, ptr %2, align 8
  %3 = load ptr, ptr %2, align 8
  %4 = getelementptr inbounds nuw %"class.llvm::Use", ptr %3, i32 0, i32 0
  %5 = load ptr, ptr %4, align 8
  ret ptr %5
}

; Function Attrs: mustprogress nounwind uwtable
define linkonce_odr hidden noundef ptr @_ZN4llvm21FixedNumOperandTraitsINS_13AtomicRMWInstELj2EE8op_beginEPS1_(ptr noundef %0) #0 comdat align 2 {
  %2 = alloca ptr, align 8
  store ptr %0, ptr %2, align 8
  %3 = load ptr, ptr %2, align 8
  %4 = getelementptr inbounds %"class.llvm::Use", ptr %3, i64 -2
  ret ptr %4
}

; Function Attrs: mustprogress nounwind uwtable
define linkonce_odr hidden void @_ZN4llvm12LocationSizeC2Emb(ptr noundef nonnull align 8 dereferenceable(8) %0, i64 noundef %1, i1 noundef zeroext %2) unnamed_addr #0 comdat align 2 {
  %4 = alloca ptr, align 8
  %5 = alloca i64, align 8
  %6 = alloca i8, align 1
  store ptr %0, ptr %4, align 8
  store i64 %1, ptr %5, align 8
  %7 = zext i1 %2 to i8
  store i8 %7, ptr %6, align 1
  %8 = load ptr, ptr %4, align 8
  %9 = getelementptr inbounds nuw %"class.llvm::LocationSize", ptr %8, i32 0, i32 0
  %10 = load i64, ptr %5, align 8
  %11 = icmp ugt i64 %10, 4611686018427387899
  br i1 %11, label %12, label %13

12:                                               ; preds = %3
  br label %19

13:                                               ; preds = %3
  %14 = load i64, ptr %5, align 8
  %15 = load i8, ptr %6, align 1
  %16 = trunc i8 %15 to i1
  %17 = select i1 %16, i64 4611686018427387904, i64 0
  %18 = or i64 %14, %17
  br label %19

19:                                               ; preds = %13, %12
  %20 = phi i64 [ -4611686018427387906, %12 ], [ %18, %13 ]
  store i64 %20, ptr %9, align 8
  ret void
}

; Function Attrs: mustprogress nounwind uwtable
define linkonce_odr hidden void @_ZN4llvm8TypeSizeC2Emb(ptr noundef nonnull align 8 dereferenceable(9) %0, i64 noundef %1, i1 noundef zeroext %2) unnamed_addr #0 comdat align 2 {
  %4 = alloca ptr, align 8
  %5 = alloca i64, align 8
  %6 = alloca i8, align 1
  store ptr %0, ptr %4, align 8
  store i64 %1, ptr %5, align 8
  %7 = zext i1 %2 to i8
  store i8 %7, ptr %6, align 1
  %8 = load ptr, ptr %4, align 8
  %9 = load i64, ptr %5, align 8
  %10 = load i8, ptr %6, align 1
  %11 = trunc i8 %10 to i1
  call void @_ZN4llvm7details23FixedOrScalableQuantityINS_8TypeSizeEmEC2Emb(ptr noundef nonnull align 8 dereferenceable(9) %8, i64 noundef %9, i1 noundef zeroext %11)
  ret void
}

; Function Attrs: mustprogress nounwind uwtable
define linkonce_odr hidden noundef zeroext i1 @_ZNK4llvm7details23FixedOrScalableQuantityINS_8TypeSizeEmE10isScalableEv(ptr noundef nonnull align 8 dereferenceable(9) %0) #0 comdat align 2 {
  %2 = alloca ptr, align 8
  store ptr %0, ptr %2, align 8
  %3 = load ptr, ptr %2, align 8
  %4 = getelementptr inbounds nuw %"class.llvm::details::FixedOrScalableQuantity", ptr %3, i32 0, i32 1
  %5 = load i8, ptr %4, align 8
  %6 = trunc i8 %5 to i1
  ret i1 %6
}

; Function Attrs: mustprogress nounwind uwtable
define linkonce_odr hidden noundef i64 @_ZNK4llvm7details23FixedOrScalableQuantityINS_8TypeSizeEmE16getKnownMinValueEv(ptr noundef nonnull align 8 dereferenceable(9) %0) #0 comdat align 2 {
  %2 = alloca ptr, align 8
  store ptr %0, ptr %2, align 8
  %3 = load ptr, ptr %2, align 8
  %4 = getelementptr inbounds nuw %"class.llvm::details::FixedOrScalableQuantity", ptr %3, i32 0, i32 0
  %5 = load i64, ptr %4, align 8
  ret i64 %5
}

; Function Attrs: mustprogress nounwind uwtable
define linkonce_odr hidden { i64, i8 } @_ZNK4llvm10DataLayout22getTypeStoreSizeInBitsEPNS_4TypeE(ptr noundef nonnull align 8 dereferenceable(512) %0, ptr noundef %1) #0 comdat align 2 {
  %3 = alloca %"class.llvm::TypeSize", align 8
  %4 = alloca ptr, align 8
  %5 = alloca ptr, align 8
  %6 = alloca %"class.llvm::TypeSize", align 8
  %7 = alloca { i64, i8 }, align 8
  %8 = alloca i64, align 8
  store ptr %0, ptr %4, align 8
  store ptr %1, ptr %5, align 8
  %9 = load ptr, ptr %4, align 8
  %10 = load ptr, ptr %5, align 8
  %11 = call { i64, i8 } @_ZNK4llvm10DataLayout17getTypeSizeInBitsEPNS_4TypeE(ptr noundef nonnull align 8 dereferenceable(512) %9, ptr noundef %10)
  store { i64, i8 } %11, ptr %7, align 8
  call void @llvm.memcpy.p0.p0.i64(ptr align 8 %6, ptr align 8 %7, i64 9, i1 false)
  %12 = call noundef i64 @_ZNK4llvm7details23FixedOrScalableQuantityINS_8TypeSizeEmE16getKnownMinValueEv(ptr noundef nonnull align 8 dereferenceable(9) %6)
  %13 = call noundef i64 @_ZN4llvm15alignToPowerOf2ImimEET1_T_T0_(i64 noundef %12, i32 noundef 8)
  store i64 %13, ptr %8, align 8
  %14 = load i64, ptr %8, align 8
  %15 = call noundef zeroext i1 @_ZNK4llvm7details23FixedOrScalableQuantityINS_8TypeSizeEmE10isScalableEv(ptr noundef nonnull align 8 dereferenceable(9) %6)
  call void @_ZN4llvm8TypeSizeC2Emb(ptr noundef nonnull align 8 dereferenceable(9) %3, i64 noundef %14, i1 noundef zeroext %15)
  %16 = load { i64, i8 }, ptr %3, align 8
  ret { i64, i8 } %16
}

; Function Attrs: mustprogress nounwind uwtable
define linkonce_odr hidden noundef ptr @_ZNK4llvm13AtomicRMWInst10getOperandEj(ptr noundef nonnull align 8 dereferenceable(73) %0, i32 noundef %1) #0 comdat align 2 {
  %3 = alloca ptr, align 8
  %4 = alloca i32, align 4
  store ptr %0, ptr %3, align 8
  store i32 %1, ptr %4, align 4
  %5 = load ptr, ptr %3, align 8
  %6 = call noundef ptr @_ZN4llvm21FixedNumOperandTraitsINS_13AtomicRMWInstELj2EE8op_beginEPS1_(ptr noundef %5)
  %7 = load i32, ptr %4, align 4
  %8 = zext i32 %7 to i64
  %9 = getelementptr inbounds %"class.llvm::Use", ptr %6, i64 %8
  %10 = call noundef ptr @_ZNK4llvm3Use3getEv(ptr noundef nonnull align 8 dereferenceable(32) %9)
  %11 = call noundef ptr @_ZN4llvm12cast_or_nullINS_5ValueES1_EEDaPT0_(ptr noundef %10)
  ret ptr %11
}

; Function Attrs: mustprogress nounwind uwtable
define linkonce_odr hidden void @_ZN4llvm14MemoryLocationC2EPKNS_5ValueENS_12LocationSizeERKNS_9AAMDNodesE(ptr noundef nonnull align 8 dereferenceable(48) %0, ptr noundef %1, i64 %2, ptr noundef nonnull align 8 dereferenceable(32) %3) unnamed_addr #0 comdat align 2 {
  %5 = alloca %"class.llvm::LocationSize", align 8
  %6 = alloca ptr, align 8
  %7 = alloca ptr, align 8
  %8 = alloca ptr, align 8
  %9 = getelementptr inbounds nuw %"class.llvm::LocationSize", ptr %5, i32 0, i32 0
  store i64 %2, ptr %9, align 8
  store ptr %0, ptr %6, align 8
  store ptr %1, ptr %7, align 8
  store ptr %3, ptr %8, align 8
  %10 = load ptr, ptr %6, align 8
  %11 = getelementptr inbounds nuw %"class.llvm::MemoryLocation", ptr %10, i32 0, i32 0
  %12 = load ptr, ptr %7, align 8
  store ptr %12, ptr %11, align 8
  %13 = getelementptr inbounds nuw %"class.llvm::MemoryLocation", ptr %10, i32 0, i32 1
  call void @llvm.memcpy.p0.p0.i64(ptr align 8 %13, ptr align 8 %5, i64 8, i1 false)
  %14 = getelementptr inbounds nuw %"class.llvm::MemoryLocation", ptr %10, i32 0, i32 2
  %15 = load ptr, ptr %8, align 8
  call void @llvm.memcpy.p0.p0.i64(ptr align 8 %14, ptr align 8 %15, i64 32, i1 false)
  ret void
}

; Function Attrs: mustprogress nounwind uwtable
define linkonce_odr hidden i64 @_ZN4llvm12LocationSize7preciseENS_8TypeSizeE(i64 %0, i8 %1) #0 comdat align 2 {
  %3 = alloca %"class.llvm::LocationSize", align 8
  %4 = alloca %"class.llvm::TypeSize", align 8
  %5 = getelementptr inbounds nuw { i64, i8 }, ptr %4, i32 0, i32 0
  store i64 %0, ptr %5, align 8
  %6 = getelementptr inbounds nuw { i64, i8 }, ptr %4, i32 0, i32 1
  store i8 %1, ptr %6, align 8
  %7 = call noundef i64 @_ZNK4llvm7details23FixedOrScalableQuantityINS_8TypeSizeEmE16getKnownMinValueEv(ptr noundef nonnull align 8 dereferenceable(9) %4)
  %8 = call noundef zeroext i1 @_ZNK4llvm7details23FixedOrScalableQuantityINS_8TypeSizeEmE10isScalableEv(ptr noundef nonnull align 8 dereferenceable(9) %4)
  call void @_ZN4llvm12LocationSizeC2Emb(ptr noundef nonnull align 8 dereferenceable(8) %3, i64 noundef %7, i1 noundef zeroext %8)
  %9 = getelementptr inbounds nuw %"class.llvm::LocationSize", ptr %3, i32 0, i32 0
  %10 = load i64, ptr %9, align 8
  ret i64 %10
}

; Function Attrs: mustprogress nounwind uwtable
define linkonce_odr hidden { i64, i8 } @_ZNK4llvm10DataLayout16getTypeStoreSizeEPNS_4TypeE(ptr noundef nonnull align 8 dereferenceable(512) %0, ptr noundef %1) #0 comdat align 2 {
  %3 = alloca %"class.llvm::TypeSize", align 8
  %4 = alloca ptr, align 8
  %5 = alloca ptr, align 8
  %6 = alloca %"class.llvm::TypeSize", align 8
  %7 = alloca { i64, i8 }, align 8
  store ptr %0, ptr %4, align 8
  store ptr %1, ptr %5, align 8
  %8 = load ptr, ptr %4, align 8
  %9 = load ptr, ptr %5, align 8
  %10 = call { i64, i8 } @_ZNK4llvm10DataLayout22getTypeStoreSizeInBitsEPNS_4TypeE(ptr noundef nonnull align 8 dereferenceable(512) %8, ptr noundef %9)
  store { i64, i8 } %10, ptr %7, align 8
  call void @llvm.memcpy.p0.p0.i64(ptr align 8 %6, ptr align 8 %7, i64 9, i1 false)
  %11 = call noundef i64 @_ZNK4llvm7details23FixedOrScalableQuantityINS_8TypeSizeEmE16getKnownMinValueEv(ptr noundef nonnull align 8 dereferenceable(9) %6)
  %12 = udiv i64 %11, 8
  %13 = call noundef zeroext i1 @_ZNK4llvm7details23FixedOrScalableQuantityINS_8TypeSizeEmE10isScalableEv(ptr noundef nonnull align 8 dereferenceable(9) %6)
  call void @_ZN4llvm8TypeSizeC2Emb(ptr noundef nonnull align 8 dereferenceable(9) %3, i64 noundef %12, i1 noundef zeroext %13)
  %14 = load { i64, i8 }, ptr %3, align 8
  ret { i64, i8 } %14
}

; Function Attrs: mustprogress nounwind uwtable
define linkonce_odr hidden noundef ptr @_ZNK4llvm5Value7getTypeEv(ptr noundef nonnull align 8 dereferenceable(24) %0) #0 comdat align 2 {
  %2 = alloca ptr, align 8
  store ptr %0, ptr %2, align 8
  %3 = load ptr, ptr %2, align 8
  %4 = getelementptr inbounds nuw %"class.llvm::Value", ptr %3, i32 0, i32 4
  %5 = load ptr, ptr %4, align 8
  ret ptr %5
}

; Function Attrs: mustprogress nounwind uwtable
define linkonce_odr hidden noundef ptr @_ZNK4llvm13AtomicRMWInst13getValOperandEv(ptr noundef nonnull align 8 dereferenceable(73) %0) #0 comdat align 2 {
  %2 = alloca ptr, align 8
  store ptr %0, ptr %2, align 8
  %3 = load ptr, ptr %2, align 8
  %4 = call noundef ptr @_ZNK4llvm13AtomicRMWInst10getOperandEj(ptr noundef nonnull align 8 dereferenceable(73) %3, i32 noundef 1)
  ret ptr %4
}

; Function Attrs: mustprogress nounwind uwtable
define linkonce_odr hidden noundef ptr @_ZNK4llvm13AtomicRMWInst17getPointerOperandEv(ptr noundef nonnull align 8 dereferenceable(73) %0) #0 comdat align 2 {
  %2 = alloca ptr, align 8
  store ptr %0, ptr %2, align 8
  %3 = load ptr, ptr %2, align 8
  %4 = call noundef ptr @_ZNK4llvm13AtomicRMWInst10getOperandEj(ptr noundef nonnull align 8 dereferenceable(73) %3, i32 noundef 0)
  ret ptr %4
}

; Function Attrs: mustprogress nounwind uwtable
define dso_local void @_ZN4llvm14MemoryLocation3getEPKNS_13AtomicRMWInstE(ptr dead_on_unwind noalias writable sret(%"class.llvm::MemoryLocation") align 8 %0, ptr noundef %1) #0 align 2 {
  %3 = alloca ptr, align 8
  %4 = alloca ptr, align 8
  %5 = alloca %"class.llvm::LocationSize", align 8
  %6 = alloca %"class.llvm::TypeSize", align 8
  %7 = alloca { i64, i8 }, align 8
  %8 = alloca %"struct.llvm::AAMDNodes", align 8
  store ptr %1, ptr %3, align 8
  %9 = load ptr, ptr %3, align 8
  %10 = call noundef nonnull align 8 dereferenceable(512) ptr @_ZNK4llvm11Instruction13getDataLayoutEv(ptr noundef nonnull align 8 dereferenceable(72) %9)
  store ptr %10, ptr %4, align 8
  %11 = load ptr, ptr %3, align 8
  %12 = call noundef ptr @_ZNK4llvm13AtomicRMWInst17getPointerOperandEv(ptr noundef nonnull align 8 dereferenceable(73) %11)
  %13 = load ptr, ptr %4, align 8
  %14 = load ptr, ptr %3, align 8
  %15 = call noundef ptr @_ZNK4llvm13AtomicRMWInst13getValOperandEv(ptr noundef nonnull align 8 dereferenceable(73) %14)
  %16 = call noundef ptr @_ZNK4llvm5Value7getTypeEv(ptr noundef nonnull align 8 dereferenceable(24) %15)
  %17 = call { i64, i8 } @_ZNK4llvm10DataLayout16getTypeStoreSizeEPNS_4TypeE(ptr noundef nonnull align 8 dereferenceable(512) %13, ptr noundef %16)
  store { i64, i8 } %17, ptr %7, align 8
  call void @llvm.memcpy.p0.p0.i64(ptr align 8 %6, ptr align 8 %7, i64 9, i1 false)
  %18 = getelementptr inbounds nuw { i64, i8 }, ptr %6, i32 0, i32 0
  %19 = load i64, ptr %18, align 8
  %20 = getelementptr inbounds nuw { i64, i8 }, ptr %6, i32 0, i32 1
  %21 = load i8, ptr %20, align 8
  %22 = call i64 @_ZN4llvm12LocationSize7preciseENS_8TypeSizeE(i64 %19, i8 %21)
  %23 = getelementptr inbounds nuw %"class.llvm::LocationSize", ptr %5, i32 0, i32 0
  store i64 %22, ptr %23, align 8
  %24 = load ptr, ptr %3, align 8
  call void @_ZNK4llvm11Instruction13getAAMetadataEv(ptr dead_on_unwind writable sret(%"struct.llvm::AAMDNodes") align 8 %8, ptr noundef nonnull align 8 dereferenceable(72) %24)
  %25 = getelementptr inbounds nuw %"class.llvm::LocationSize", ptr %5, i32 0, i32 0
  %26 = load i64, ptr %25, align 8
  call void @_ZN4llvm14MemoryLocationC2EPKNS_5ValueENS_12LocationSizeERKNS_9AAMDNodesE(ptr noundef nonnull align 8 dereferenceable(48) %0, ptr noundef %12, i64 %26, ptr noundef nonnull align 8 dereferenceable(32) %8)
  ret void
}