; Function Attrs: mustprogress nounwind uwtable
define dso_local void @_ZN4llvm14MemoryLocation3getEPKNS_13AtomicRMWInstE(ptr dead_on_unwind noalias writable writeonly sret(%"class.llvm::MemoryLocation") align 8 captures(none) %0, ptr noundef nonnull %1) local_unnamed_addr #0 align 2 {
  %3 = tail call noundef nonnull align 8 dereferenceable(512) ptr @_ZNK4llvm11Instruction13getDataLayoutEv(ptr noundef nonnull align 8 dereferenceable(72) %1) #5
  %4 = getelementptr inbounds i8, ptr %1, i64 -64
  %5 = load ptr, ptr %4, align 8
  %6 = getelementptr inbounds i8, ptr %1, i64 -32
  %7 = load ptr, ptr %6, align 8
  %8 = getelementptr inbounds nuw i8, ptr %7, i64 8
  %9 = load ptr, ptr %8, align 8
  %10 = tail call { i64, i8 } @_ZNK4llvm10DataLayout17getTypeSizeInBitsEPNS_4TypeE(ptr noundef nonnull align 8 dereferenceable(512) %3, ptr noundef %9)
  %.fca.0.extract.i.i = extractvalue { i64, i8 } %10, 0
  %.fca.1.extract.i.i = extractvalue { i64, i8 } %10, 1
  %11 = add i64 %.fca.0.extract.i.i, 7
  %12 = lshr i64 %11, 3
  %13 = trunc i8 %.fca.1.extract.i.i to i1
  %14 = select i1 %13, i64 4611686018427387904, i64 0
  %15 = or disjoint i64 %14, %12
  %16 = getelementptr inbounds nuw i8, ptr %0, i64 16
  tail call void @_ZNK4llvm11Instruction13getAAMetadataEv(ptr dead_on_unwind nonnull writable sret(%"struct.llvm::AAMDNodes") align 8 %16, ptr noundef nonnull align 8 dereferenceable(72) %1) #5
  store ptr %5, ptr %0, align 8
  %17 = getelementptr inbounds nuw i8, ptr %0, i64 8
  store i64 %15, ptr %17, align 8
  ret void
}